target datalayout = "e-m:e-p270:32:32-p271:32:32-p272:64:64-i64:64-i128:128-f80:128-n8:16:32:64-S128"
target triple = "x86_64-pc-linux-gnu"

%struct.fsck_options = type { ptr, ptr, i32, i32, ptr, %struct.oidset, %struct.oidset, %struct.oidset, %struct.oidset, %struct.oidset, ptr }
%struct.oidset = type { %struct.kh_oid_set }
%struct.kh_oid_set = type { i32, i32, i32, i32, ptr, ptr, ptr }

; Function Attrs: inlinehint nounwind uwtable
define internal ptr @kh_init_oid_map() #2 {
  %1 = call ptr @xcalloc(i64 noundef 1, i64 noundef 40)
  ret ptr %1
}

; Function Attrs: nounwind uwtable
define dso_local void @fsck_enable_object_names(ptr noundef %0) #0 {
  %2 = alloca ptr, align 8
  store ptr %0, ptr %2, align 8, !tbaa !24
  %3 = load ptr, ptr %2, align 8, !tbaa !24
  %4 = getelementptr inbounds nuw %struct.fsck_options, ptr %3, i32 0, i32 10
  %5 = load ptr, ptr %4, align 8, !tbaa !68
  %6 = icmp ne ptr %5, null
  br i1 %6, label %11, label %7

7:                                                ; preds = %1
  %8 = call ptr @kh_init_oid_map()
  %9 = load ptr, ptr %2, align 8, !tbaa !24
  %10 = getelementptr inbounds nuw %struct.fsck_options, ptr %9, i32 0, i32 10
  store ptr %8, ptr %10, align 8, !tbaa !68
  br label %11

11:                                               ; preds = %7, %1
  ret void
}