; Function Attrs: nounwind uwtable
define dso_local void @fsck_enable_object_names(ptr noundef captures(none) %0) local_unnamed_addr #0 {
  %2 = getelementptr inbounds nuw i8, ptr %0, i64 232
  %3 = load ptr, ptr %2, align 8, !tbaa !57
  %.not = icmp eq ptr %3, null
  br i1 %.not, label %4, label %6

4:                                                ; preds = %1
  %5 = tail call ptr @xcalloc(i64 noundef 1, i64 noundef 40) #16
  store ptr %5, ptr %2, align 8, !tbaa !57
  br label %6

6:                                                ; preds = %4, %1
  ret void
}